target datalayout = "e-m:e-p270:32:32-p271:32:32-p272:64:64-i64:64-i128:128-f80:128-n8:16:32:64-S128"
target triple = "x86_64-pc-linux-gnu"

%struct.PyModuleDef = type { %struct.PyModuleDef_Base, ptr, ptr, i64, ptr, ptr, ptr, ptr, ptr }
%struct.PyModuleDef_Base = type { %struct._object, ptr, i64, ptr }
%struct._object = type { %union.anon, ptr }
%union.anon = type { i64 }
%struct.PyVarObject = type { %struct._object, i64 }
%struct.pysqlite_Connection = type { %struct._object, ptr, ptr, i32, ptr, i32, i32, i32, i64, ptr, ptr, ptr, i32, ptr, ptr, ptr, ptr, ptr, ptr, ptr, ptr, ptr, ptr, ptr, ptr, ptr, ptr, ptr }
%struct.pysqlite_state = type { ptr, ptr, ptr, ptr, ptr, ptr, ptr, ptr, ptr, ptr, ptr, ptr, ptr, i32, i32, ptr, ptr, ptr, ptr, ptr, ptr, ptr, ptr, ptr, ptr, ptr, ptr, ptr, ptr }
%struct.anon = type { i32, i32 }

@.str = private unnamed_addr constant [37 x i8] c"Base Connection.__init__ not called.\00", align 1
@.str.1 = private unnamed_addr constant [37 x i8] c"Cannot operate on a closed database.\00", align 1
@_sqlite3module = external global %struct.PyModuleDef, align 8
@_Py_NoneStruct = external global %struct._object, align 8
@.str.77 = private unnamed_addr constant [7 x i8] c"filter\00", align 1
@.str.78 = private unnamed_addr constant [13 x i8] c"sqlite3.dump\00", align 1
@.str.79 = private unnamed_addr constant [10 x i8] c"_iterdump\00", align 1
@.str.80 = private unnamed_addr constant [39 x i8] c"Failed to obtain _iterdump() reference\00", align 1
@.str.81 = private unnamed_addr constant [4 x i8] c"(s)\00", align 1

; Function Attrs: inlinehint nounwind uwtable
define internal ptr @pysqlite_get_state(ptr noundef %0) #2 {
  %2 = alloca ptr, align 8
  %3 = alloca ptr, align 8
  store ptr %0, ptr %2, align 8, !tbaa !22
  call void @llvm.lifetime.start.p0(i64 8, ptr %3) #8
  %4 = load ptr, ptr %2, align 8, !tbaa !22
  %5 = call ptr @PyModule_GetState(ptr noundef %4)
  store ptr %5, ptr %3, align 8, !tbaa !3
  %6 = load ptr, ptr %3, align 8, !tbaa !3
  call void @llvm.lifetime.end.p0(i64 8, ptr %3) #8
  ret ptr %6
}

; Function Attrs: alwaysinline nounwind uwtable
define internal i32 @_Py_IsImmortal(ptr noundef %0) #5 {
  %2 = alloca ptr, align 8
  store ptr %0, ptr %2, align 8, !tbaa !22
  %3 = load ptr, ptr %2, align 8, !tbaa !22
  %4 = getelementptr inbounds nuw %struct._object, ptr %3, i32 0, i32 0
  %5 = getelementptr inbounds nuw %struct.anon, ptr %4, i32 0, i32 0
  %6 = load i32, ptr %5, align 8, !tbaa !65
  %7 = icmp slt i32 %6, 0
  %8 = zext i1 %7 to i32
  ret i32 %8
}

; Function Attrs: inlinehint nounwind uwtable
define internal ptr @pysqlite_get_state_by_type(ptr noundef %0) #2 {
  %2 = alloca ptr, align 8
  %3 = alloca ptr, align 8
  store ptr %0, ptr %2, align 8, !tbaa !21
  call void @llvm.lifetime.start.p0(i64 8, ptr %3) #8
  %4 = load ptr, ptr %2, align 8, !tbaa !21
  %5 = call ptr @PyType_GetModuleByDef(ptr noundef %4, ptr noundef @_sqlite3module)
  store ptr %5, ptr %3, align 8, !tbaa !22
  %6 = load ptr, ptr %3, align 8, !tbaa !22
  %7 = call ptr @pysqlite_get_state(ptr noundef %6)
  call void @llvm.lifetime.end.p0(i64 8, ptr %3) #8
  ret ptr %7
}

; Function Attrs: inlinehint nounwind uwtable
define internal ptr @_Py_TYPE(ptr noundef %0) #2 {
  %2 = alloca ptr, align 8
  store ptr %0, ptr %2, align 8, !tbaa !22
  %3 = load ptr, ptr %2, align 8, !tbaa !22
  %4 = getelementptr inbounds nuw %struct._object, ptr %3, i32 0, i32 1
  %5 = load ptr, ptr %4, align 8, !tbaa !23
  ret ptr %5
}

; Function Attrs: alwaysinline nounwind uwtable
define internal void @Py_DECREF(ptr noundef %0) #5 {
  %2 = alloca ptr, align 8
  store ptr %0, ptr %2, align 8, !tbaa !22
  %3 = load ptr, ptr %2, align 8, !tbaa !22
  %4 = call i32 @_Py_IsImmortal(ptr noundef %3)
  %5 = icmp ne i32 %4, 0
  br i1 %5, label %6, label %7

6:                                                ; preds = %1
  br label %16

7:                                                ; preds = %1
  %8 = load ptr, ptr %2, align 8, !tbaa !22
  %9 = getelementptr inbounds nuw %struct._object, ptr %8, i32 0, i32 0
  %10 = getelementptr inbounds nuw %struct.anon, ptr %9, i32 0, i32 0
  %11 = load i32, ptr %10, align 8, !tbaa !65
  %12 = add i32 %11, -1
  store i32 %12, ptr %10, align 8, !tbaa !65
  %13 = icmp eq i32 %12, 0
  br i1 %13, label %14, label %16

14:                                               ; preds = %7
  %15 = load ptr, ptr %2, align 8, !tbaa !22
  call void @_Py_Dealloc(ptr noundef %15)
  br label %16

16:                                               ; preds = %6, %14, %7
  ret void
}

; Function Attrs: nounwind uwtable
define hidden i32 @pysqlite_check_connection(ptr noundef %0) #0 {
  %2 = alloca i32, align 4
  %3 = alloca ptr, align 8
  %4 = alloca ptr, align 8
  store ptr %0, ptr %3, align 8, !tbaa !3
  %5 = load ptr, ptr %3, align 8, !tbaa !3
  %6 = getelementptr inbounds nuw %struct.pysqlite_Connection, ptr %5, i32 0, i32 7
  %7 = load i32, ptr %6, align 8, !tbaa !7
  %8 = icmp ne i32 %7, 0
  br i1 %8, label %16, label %9

9:                                                ; preds = %1
  call void @llvm.lifetime.start.p0(i64 8, ptr %4) #8
  %10 = load ptr, ptr %3, align 8, !tbaa !3
  %11 = call ptr @_Py_TYPE(ptr noundef %10)
  %12 = call ptr @pysqlite_get_state_by_type(ptr noundef %11)
  store ptr %12, ptr %4, align 8, !tbaa !3
  %13 = load ptr, ptr %4, align 8, !tbaa !3
  %14 = getelementptr inbounds nuw %struct.pysqlite_state, ptr %13, i32 0, i32 8
  %15 = load ptr, ptr %14, align 8, !tbaa !17
  call void @PyErr_SetString(ptr noundef %15, ptr noundef @.str)
  store i32 0, ptr %2, align 4
  call void @llvm.lifetime.end.p0(i64 8, ptr %4) #8
  br label %28

16:                                               ; preds = %1
  %17 = load ptr, ptr %3, align 8, !tbaa !3
  %18 = getelementptr inbounds nuw %struct.pysqlite_Connection, ptr %17, i32 0, i32 1
  %19 = load ptr, ptr %18, align 8, !tbaa !19
  %20 = icmp ne ptr %19, null
  br i1 %20, label %27, label %21

21:                                               ; preds = %16
  %22 = load ptr, ptr %3, align 8, !tbaa !3
  %23 = getelementptr inbounds nuw %struct.pysqlite_Connection, ptr %22, i32 0, i32 2
  %24 = load ptr, ptr %23, align 8, !tbaa !20
  %25 = getelementptr inbounds nuw %struct.pysqlite_state, ptr %24, i32 0, i32 8
  %26 = load ptr, ptr %25, align 8, !tbaa !17
  call void @PyErr_SetString(ptr noundef %26, ptr noundef @.str.1)
  store i32 0, ptr %2, align 4
  br label %28

27:                                               ; preds = %16
  store i32 1, ptr %2, align 4
  br label %28

28:                                               ; preds = %27, %21, %9
  %29 = load i32, ptr %2, align 4
  ret i32 %29
}

; Function Attrs: inlinehint nounwind uwtable
define internal i64 @Py_SIZE(ptr noundef %0) #2 {
  %2 = alloca ptr, align 8
  store ptr %0, ptr %2, align 8, !tbaa !22
  %3 = load ptr, ptr %2, align 8, !tbaa !22
  %4 = getelementptr inbounds nuw %struct.PyVarObject, ptr %3, i32 0, i32 1
  %5 = load i64, ptr %4, align 8, !tbaa !80
  ret i64 %5
}

; Function Attrs: nounwind uwtable
define internal ptr @pysqlite_connection_iterdump_impl(ptr noundef %0, ptr noundef %1) #0 {
  %3 = alloca ptr, align 8
  %4 = alloca ptr, align 8
  %5 = alloca ptr, align 8
  %6 = alloca ptr, align 8
  %7 = alloca i32, align 4
  %8 = alloca [3 x ptr], align 16
  %9 = alloca ptr, align 8
  %10 = alloca i64, align 8
  %11 = alloca ptr, align 8
  store ptr %0, ptr %4, align 8, !tbaa !3
  store ptr %1, ptr %5, align 8, !tbaa !22
  %12 = load ptr, ptr %4, align 8, !tbaa !3
  %13 = call i32 @pysqlite_check_connection(ptr noundef %12)
  %14 = icmp ne i32 %13, 0
  br i1 %14, label %16, label %15

15:                                               ; preds = %2
  store ptr null, ptr %3, align 8
  br label %50

16:                                               ; preds = %2
  call void @llvm.lifetime.start.p0(i64 8, ptr %6) #8
  %17 = call ptr @PyImport_ImportModuleAttrString(ptr noundef @.str.78, ptr noundef @.str.79)
  store ptr %17, ptr %6, align 8, !tbaa !22
  %18 = load ptr, ptr %6, align 8, !tbaa !22
  %19 = icmp ne ptr %18, null
  br i1 %19, label %28, label %20

20:                                               ; preds = %16
  %21 = call ptr @PyErr_Occurred()
  %22 = icmp ne ptr %21, null
  br i1 %22, label %27, label %23

23:                                               ; preds = %20
  %24 = load ptr, ptr %4, align 8, !tbaa !3
  %25 = getelementptr inbounds nuw %struct.pysqlite_Connection, ptr %24, i32 0, i32 23
  %26 = load ptr, ptr %25, align 8, !tbaa !81
  call void @PyErr_SetString(ptr noundef %26, ptr noundef @.str.80)
  br label %27

27:                                               ; preds = %23, %20
  store ptr null, ptr %3, align 8
  store i32 1, ptr %7, align 4
  br label %49

28:                                               ; preds = %16
  call void @llvm.lifetime.start.p0(i64 24, ptr %8) #8
  store ptr null, ptr %8, align 8, !tbaa !22
  %29 = getelementptr inbounds ptr, ptr %8, i64 1
  %30 = load ptr, ptr %4, align 8, !tbaa !3
  store ptr %30, ptr %29, align 8, !tbaa !22
  %31 = getelementptr inbounds ptr, ptr %8, i64 2
  %32 = load ptr, ptr %5, align 8, !tbaa !22
  store ptr %32, ptr %31, align 8, !tbaa !22
  call void @llvm.lifetime.start.p0(i64 8, ptr %9) #8
  %33 = call ptr (ptr, ...) @Py_BuildValue(ptr noundef @.str.81, ptr noundef @.str.77)
  store ptr %33, ptr %9, align 8, !tbaa !22
  %34 = load ptr, ptr %9, align 8, !tbaa !22
  %35 = icmp ne ptr %34, null
  br i1 %35, label %38, label %36

36:                                               ; preds = %28
  %37 = load ptr, ptr %6, align 8, !tbaa !22
  call void @Py_DECREF(ptr noundef %37)
  store ptr null, ptr %3, align 8
  store i32 1, ptr %7, align 4
  br label %48

38:                                               ; preds = %28
  call void @llvm.lifetime.start.p0(i64 8, ptr %10) #8
  store i64 -9223372036854775807, ptr %10, align 8, !tbaa !39
  call void @llvm.lifetime.start.p0(i64 8, ptr %11) #8
  %39 = load ptr, ptr %6, align 8, !tbaa !22
  %40 = getelementptr inbounds [3 x ptr], ptr %8, i64 0, i64 0
  %41 = getelementptr ptr, ptr %40, i64 1
  %42 = load i64, ptr %10, align 8, !tbaa !39
  %43 = load ptr, ptr %9, align 8, !tbaa !22
  %44 = call ptr @PyObject_Vectorcall(ptr noundef %39, ptr noundef %41, i64 noundef %42, ptr noundef %43)
  store ptr %44, ptr %11, align 8, !tbaa !22
  %45 = load ptr, ptr %6, align 8, !tbaa !22
  call void @Py_DECREF(ptr noundef %45)
  %46 = load ptr, ptr %9, align 8, !tbaa !22
  call void @Py_DECREF(ptr noundef %46)
  %47 = load ptr, ptr %11, align 8, !tbaa !22
  store ptr %47, ptr %3, align 8
  store i32 1, ptr %7, align 4
  call void @llvm.lifetime.end.p0(i64 8, ptr %11) #8
  call void @llvm.lifetime.end.p0(i64 8, ptr %10) #8
  br label %48

48:                                               ; preds = %38, %36
  call void @llvm.lifetime.end.p0(i64 8, ptr %9) #8
  call void @llvm.lifetime.end.p0(i64 24, ptr %8) #8
  br label %49

49:                                               ; preds = %48, %27
  call void @llvm.lifetime.end.p0(i64 8, ptr %6) #8
  br label %50

50:                                               ; preds = %49, %15
  %51 = load ptr, ptr %3, align 8
  ret ptr %51
}

; Function Attrs: inlinehint nounwind uwtable
define internal i64 @PyTuple_GET_SIZE(ptr noundef %0) #2 {
  %2 = alloca ptr, align 8
  %3 = alloca ptr, align 8
  store ptr %0, ptr %2, align 8, !tbaa !22
  call void @llvm.lifetime.start.p0(i64 8, ptr %3) #8
  %4 = load ptr, ptr %2, align 8, !tbaa !22
  store ptr %4, ptr %3, align 8, !tbaa !3
  %5 = load ptr, ptr %3, align 8, !tbaa !3
  %6 = call i64 @Py_SIZE(ptr noundef %5)
  call void @llvm.lifetime.end.p0(i64 8, ptr %3) #8
  ret i64 %6
}

; Function Attrs: nounwind uwtable
define internal ptr @pysqlite_connection_iterdump(ptr noundef %0, ptr noundef %1, i64 noundef %2, ptr noundef %3) #0 {
  %5 = alloca ptr, align 8
  %6 = alloca ptr, align 8
  %7 = alloca i64, align 8
  %8 = alloca ptr, align 8
  %9 = alloca ptr, align 8
  %10 = alloca [1 x ptr], align 8
  %11 = alloca i64, align 8
  %12 = alloca ptr, align 8
  store ptr %0, ptr %5, align 8, !tbaa !22
  store ptr %1, ptr %6, align 8, !tbaa !43
  store i64 %2, ptr %7, align 8, !tbaa !39
  store ptr %3, ptr %8, align 8, !tbaa !22
  call void @llvm.lifetime.start.p0(i64 8, ptr %9) #8
  store ptr null, ptr %9, align 8, !tbaa !22
  call void @llvm.lifetime.start.p0(i64 8, ptr %10) #8
  call void @llvm.lifetime.start.p0(i64 8, ptr %11) #8
  %13 = load i64, ptr %7, align 8, !tbaa !39
  %14 = load ptr, ptr %8, align 8, !tbaa !22
  %15 = icmp ne ptr %14, null
  br i1 %15, label %16, label %19

16:                                               ; preds = %4
  %17 = load ptr, ptr %8, align 8, !tbaa !22
  %18 = call i64 @PyTuple_GET_SIZE(ptr noundef %17)
  br label %20

19:                                               ; preds = %4
  br label %20

20:                                               ; preds = %19, %16
  %21 = phi i64 [ %18, %16 ], [ 0, %19 ]
  %22 = add i64 %13, %21
  %23 = sub i64 %22, 0
  store i64 %23, ptr %11, align 8, !tbaa !39
  call void @llvm.lifetime.start.p0(i64 8, ptr %12) #8
  store ptr @_Py_NoneStruct, ptr %12, align 8, !tbaa !22
  %24 = load ptr, ptr %8, align 8, !tbaa !22
  %25 = icmp eq ptr %24, null
  br i1 %25, label %26, label %37

26:                                               ; preds = %20
  %27 = load i64, ptr %7, align 8, !tbaa !39
  %28 = icmp sle i64 0, %27
  br i1 %28, label %29, label %37

29:                                               ; preds = %26
  %30 = load i64, ptr %7, align 8, !tbaa !39
  %31 = icmp sle i64 %30, 0
  br i1 %31, label %32, label %37

32:                                               ; preds = %29
  %33 = load ptr, ptr %6, align 8, !tbaa !43
  %34 = icmp ne ptr %33, null
  br i1 %34, label %35, label %37

35:                                               ; preds = %32
  %36 = load ptr, ptr %6, align 8, !tbaa !43
  br label %43

37:                                               ; preds = %32, %29, %26, %20
  %38 = load ptr, ptr %6, align 8, !tbaa !43
  %39 = load i64, ptr %7, align 8, !tbaa !39
  %40 = load ptr, ptr %8, align 8, !tbaa !22
  %41 = getelementptr inbounds [1 x ptr], ptr %10, i64 0, i64 0
  %42 = call ptr @_PyArg_UnpackKeywords(ptr noundef %38, i64 noundef %39, ptr noundef null, ptr noundef %40, ptr noundef @pysqlite_connection_iterdump._parser, i32 noundef 0, i32 noundef 0, i32 noundef 0, i32 noundef 0, ptr noundef %41)
  br label %43

43:                                               ; preds = %37, %35
  %44 = phi ptr [ %36, %35 ], [ %42, %37 ]
  store ptr %44, ptr %6, align 8, !tbaa !43
  %45 = load ptr, ptr %6, align 8, !tbaa !43
  %46 = icmp ne ptr %45, null
  br i1 %46, label %48, label %47

47:                                               ; preds = %43
  br label %60

48:                                               ; preds = %43
  %49 = load i64, ptr %11, align 8, !tbaa !39
  %50 = icmp ne i64 %49, 0
  br i1 %50, label %52, label %51

51:                                               ; preds = %48
  br label %56

52:                                               ; preds = %48
  %53 = load ptr, ptr %6, align 8, !tbaa !43
  %54 = getelementptr ptr, ptr %53, i64 0
  %55 = load ptr, ptr %54, align 8, !tbaa !22
  store ptr %55, ptr %12, align 8, !tbaa !22
  br label %56

56:                                               ; preds = %52, %51
  %57 = load ptr, ptr %5, align 8, !tbaa !22
  %58 = load ptr, ptr %12, align 8, !tbaa !22
  %59 = call ptr @pysqlite_connection_iterdump_impl(ptr noundef %57, ptr noundef %58)
  store ptr %59, ptr %9, align 8, !tbaa !22
  br label %60

60:                                               ; preds = %56, %47
  %61 = load ptr, ptr %9, align 8, !tbaa !22
  call void @llvm.lifetime.end.p0(i64 8, ptr %12) #8
  call void @llvm.lifetime.end.p0(i64 8, ptr %11) #8
  call void @llvm.lifetime.end.p0(i64 8, ptr %10) #8
  call void @llvm.lifetime.end.p0(i64 8, ptr %9) #8
  ret ptr %61
}