; Function Attrs: nounwind uwtable
define internal ptr @pysqlite_connection_iterdump(ptr noundef %0, ptr noundef %1, i64 noundef %2, ptr noundef %3) #0 {
  %5 = alloca [3 x ptr], align 16
  %6 = alloca [1 x ptr], align 8
  call void @llvm.lifetime.start.p0(i64 8, ptr nonnull %6) #7
  %.not = icmp eq ptr %3, null
  br i1 %.not, label %8, label %.thread

.thread:                                          ; preds = %4
  %7 = getelementptr i8, ptr %3, i64 16
  %.val = load i64, ptr %7, align 8, !tbaa !35
  br label %11

8:                                                ; preds = %4
  %9 = icmp eq i64 %2, 0
  %10 = icmp ne ptr %1, null
  %or.cond5 = and i1 %10, %9
  br i1 %or.cond5, label %.thread29, label %11

11:                                               ; preds = %8, %.thread
  %12 = phi i64 [ %.val, %.thread ], [ 0, %8 ]
  %13 = call ptr @_PyArg_UnpackKeywords(ptr noundef %1, i64 noundef %2, ptr noundef null, ptr noundef %3, ptr noundef nonnull @pysqlite_connection_iterdump._parser, i32 noundef 0, i32 noundef 0, i32 noundef 0, i32 noundef 0, ptr noundef nonnull %6) #7
  %.not25 = icmp eq ptr %13, null
  br i1 %.not25, label %pysqlite_connection_iterdump_impl.exit, label %.thread29

.thread29:                                        ; preds = %8, %11
  %14 = phi ptr [ %13, %11 ], [ %1, %8 ]
  %15 = phi i64 [ %12, %11 ], [ 0, %8 ]
  %16 = sub i64 0, %15
  %.not26 = icmp eq i64 %2, %16
  br i1 %.not26, label %19, label %17

17:                                               ; preds = %.thread29
  %18 = load ptr, ptr %14, align 8, !tbaa !25
  br label %19

19:                                               ; preds = %.thread29, %17
  %.0 = phi ptr [ %18, %17 ], [ @_Py_NoneStruct, %.thread29 ]
  %20 = getelementptr inbounds nuw i8, ptr %0, i64 56
  %21 = load i32, ptr %20, align 8, !tbaa !3
  %.not.i24.i = icmp eq i32 %21, 0
  br i1 %.not.i24.i, label %22, label %26

22:                                               ; preds = %19
  %23 = getelementptr i8, ptr %0, i64 8
  %.val.i.i = load ptr, ptr %23, align 8, !tbaa !16
  %24 = call ptr @PyType_GetModuleByDef(ptr noundef %.val.i.i, ptr noundef nonnull @_sqlite3module) #7
  %25 = call ptr @PyModule_GetState(ptr noundef %24) #7
  br label %pysqlite_check_connection.exit.thread.i

26:                                               ; preds = %19
  %27 = getelementptr inbounds nuw i8, ptr %0, i64 16
  %28 = load ptr, ptr %27, align 8, !tbaa !17
  %.not5.i.i = icmp eq ptr %28, null
  br i1 %.not5.i.i, label %29, label %pysqlite_check_connection.exit.i

29:                                               ; preds = %26
  %30 = getelementptr inbounds nuw i8, ptr %0, i64 24
  %31 = load ptr, ptr %30, align 8, !tbaa !18
  br label %pysqlite_check_connection.exit.thread.i

pysqlite_check_connection.exit.thread.i:          ; preds = %29, %22
  %.sink.i.i = phi ptr [ %31, %29 ], [ %25, %22 ]
  %.str.1.sink.i.i = phi ptr [ @.str.1, %29 ], [ @.str, %22 ]
  %32 = getelementptr inbounds nuw i8, ptr %.sink.i.i, i64 64
  %33 = load ptr, ptr %32, align 8, !tbaa !19
  call void @PyErr_SetString(ptr noundef %33, ptr noundef nonnull %.str.1.sink.i.i) #7
  br label %pysqlite_connection_iterdump_impl.exit

pysqlite_check_connection.exit.i:                 ; preds = %26
  %34 = call ptr @PyImport_ImportModuleAttrString(ptr noundef nonnull @.str.78, ptr noundef nonnull @.str.79) #7
  %.not15.i = icmp eq ptr %34, null
  br i1 %.not15.i, label %35, label %40

35:                                               ; preds = %pysqlite_check_connection.exit.i
  %36 = call ptr @PyErr_Occurred() #7
  %.not16.i = icmp eq ptr %36, null
  br i1 %.not16.i, label %37, label %pysqlite_connection_iterdump_impl.exit

37:                                               ; preds = %35
  %38 = getelementptr inbounds nuw i8, ptr %0, i64 184
  %39 = load ptr, ptr %38, align 8, !tbaa !69
  call void @PyErr_SetString(ptr noundef %39, ptr noundef nonnull @.str.80) #7
  br label %pysqlite_connection_iterdump_impl.exit

40:                                               ; preds = %pysqlite_check_connection.exit.i
  call void @llvm.lifetime.start.p0(i64 24, ptr nonnull %5) #7
  store ptr null, ptr %5, align 16, !tbaa !25
  %41 = getelementptr inbounds nuw i8, ptr %5, i64 8
  store ptr %0, ptr %41, align 8, !tbaa !25
  %42 = getelementptr inbounds nuw i8, ptr %5, i64 16
  store ptr %.0, ptr %42, align 16, !tbaa !25
  %43 = call ptr (ptr, ...) @Py_BuildValue(ptr noundef nonnull @.str.81, ptr noundef nonnull @.str.77) #7
  %.not17.i = icmp eq ptr %43, null
  br i1 %.not17.i, label %44, label %49

44:                                               ; preds = %40
  %45 = load i32, ptr %34, align 8, !tbaa !34
  %.not.i20.i = icmp sgt i32 %45, -1
  br i1 %.not.i20.i, label %46, label %Py_DECREF.exit21.i

46:                                               ; preds = %44
  %47 = add nsw i32 %45, -1
  store i32 %47, ptr %34, align 8, !tbaa !34
  %48 = icmp eq i32 %47, 0
  br i1 %48, label %Py_DECREF.exit21.i.sink.split, label %Py_DECREF.exit21.i

49:                                               ; preds = %40
  %50 = call ptr @PyObject_Vectorcall(ptr noundef nonnull %34, ptr noundef nonnull %41, i64 noundef -9223372036854775807, ptr noundef nonnull %43) #7
  %51 = load i32, ptr %34, align 8, !tbaa !34
  %.not.i18.i = icmp sgt i32 %51, -1
  br i1 %.not.i18.i, label %52, label %Py_DECREF.exit19.i

52:                                               ; preds = %49
  %53 = add nsw i32 %51, -1
  store i32 %53, ptr %34, align 8, !tbaa !34
  %54 = icmp eq i32 %53, 0
  br i1 %54, label %55, label %Py_DECREF.exit19.i

55:                                               ; preds = %52
  call void @_Py_Dealloc(ptr noundef nonnull %34) #7
  br label %Py_DECREF.exit19.i

Py_DECREF.exit19.i:                               ; preds = %55, %52, %49
  %56 = load i32, ptr %43, align 8, !tbaa !34
  %.not.i.i = icmp sgt i32 %56, -1
  br i1 %.not.i.i, label %57, label %Py_DECREF.exit21.i

57:                                               ; preds = %Py_DECREF.exit19.i
  %58 = add nsw i32 %56, -1
  store i32 %58, ptr %43, align 8, !tbaa !34
  %59 = icmp eq i32 %58, 0
  br i1 %59, label %Py_DECREF.exit21.i.sink.split, label %Py_DECREF.exit21.i

Py_DECREF.exit21.i.sink.split:                    ; preds = %57, %46
  %.sink = phi ptr [ %34, %46 ], [ %43, %57 ]
  %.2.i.ph = phi ptr [ null, %46 ], [ %50, %57 ]
  call void @_Py_Dealloc(ptr noundef nonnull %.sink) #7
  br label %Py_DECREF.exit21.i

Py_DECREF.exit21.i:                               ; preds = %Py_DECREF.exit21.i.sink.split, %57, %Py_DECREF.exit19.i, %46, %44
  %.2.i = phi ptr [ null, %44 ], [ null, %46 ], [ %50, %Py_DECREF.exit19.i ], [ %50, %57 ], [ %.2.i.ph, %Py_DECREF.exit21.i.sink.split ]
  call void @llvm.lifetime.end.p0(i64 24, ptr nonnull %5) #7
  br label %pysqlite_connection_iterdump_impl.exit

pysqlite_connection_iterdump_impl.exit:           ; preds = %Py_DECREF.exit21.i, %37, %35, %pysqlite_check_connection.exit.thread.i, %11
  %.021 = phi ptr [ null, %11 ], [ %.2.i, %Py_DECREF.exit21.i ], [ null, %37 ], [ null, %35 ], [ null, %pysqlite_check_connection.exit.thread.i ]
  call void @llvm.lifetime.end.p0(i64 8, ptr nonnull %6) #7
  ret ptr %.021
}